; Function Attrs: mustprogress uwtable
define noundef i32 @_ZN6icu_7515AlphabeticIndex14getBucketCountER10UErrorCode(ptr noundef nonnull align 8 dereferenceable(400) %this, ptr noundef nonnull align 4 dereferenceable(4) %status) unnamed_addr #3 align 2 {
entry:
  tail call void @_ZN6icu_7515AlphabeticIndex11initBucketsER10UErrorCode(ptr noundef nonnull align 8 dereferenceable(400) %this, ptr noundef nonnull align 4 dereferenceable(4) %status)
  %0 = load i32, ptr %status, align 4
  %cmp.i = icmp slt i32 %0, 1
  br i1 %cmp.i, label %if.end, label %return

if.end:                                           ; preds = %entry
  %buckets_ = getelementptr inbounds i8, ptr %this, i64 72
  %1 = load ptr, ptr %buckets_, align 8
  %immutableVisibleList_.i = getelementptr inbounds i8, ptr %1, i64 16
  %2 = load ptr, ptr %immutableVisibleList_.i, align 8
  %count.i.i = getelementptr inbounds i8, ptr %2, i64 8
  %3 = load i32, ptr %count.i.i, align 8
  br label %return

return:                                           ; preds = %entry, %if.end
  %retval.0 = phi i32 [ %3, %if.end ], [ 0, %entry ]
  ret i32 %retval.0
}